; Function Attrs: nounwind uwtable
define noundef ptr @tjLoadImage(ptr noundef %0, ptr noundef %1, i32 noundef %2, ptr noundef %3, ptr noundef %4, i32 noundef %5) local_unnamed_addr #0 {
  %calloc.i = tail call dereferenceable_or_null(1864) ptr @calloc(i64 1, i64 1864)
  %7 = icmp eq ptr %calloc.i, null
  br i1 %7, label %tj3Init.exit.thread, label %tj3Init.exit

tj3Init.exit.thread:                              ; preds = %6
  %8 = tail call align 16 ptr @llvm.threadlocal.address.p0(ptr align 16 @errStr)
  %9 = tail call i32 (ptr, i64, ptr, ...) @snprintf(ptr noundef nonnull dereferenceable(1) %8, i64 noundef 200, ptr noundef nonnull @.str, ptr noundef nonnull @tj3Init.FUNCTION_NAME, ptr noundef nonnull @.str.2) #26
  br label %47

tj3Init.exit:                                     ; preds = %6
  %10 = getelementptr inbounds i8, ptr %calloc.i, i64 1540
  tail call void @llvm.memcpy.p0.p0.i64(ptr noundef nonnull align 1 dereferenceable(9) %10, ptr noundef nonnull align 1 dereferenceable(9) @.str.3, i64 9, i1 false)
  %11 = getelementptr inbounds i8, ptr %calloc.i, i64 1752
  %12 = getelementptr inbounds i8, ptr %calloc.i, i64 1768
  tail call void @llvm.memset.p0.i64(ptr noundef nonnull align 8 dereferenceable(16) %11, i8 -1, i64 16, i1 false)
  store i32 8, ptr %12, align 8
  %13 = getelementptr inbounds i8, ptr %calloc.i, i64 1772
  store i32 -1, ptr %13, align 4
  %14 = getelementptr inbounds i8, ptr %calloc.i, i64 1804
  store i32 1, ptr %14, align 4
  %15 = getelementptr inbounds i8, ptr %calloc.i, i64 1820
  store i32 1, ptr %15, align 4
  %16 = getelementptr inbounds i8, ptr %calloc.i, i64 1824
  store i32 1, ptr %16, align 8
  %17 = getelementptr inbounds i8, ptr %calloc.i, i64 1832
  store i64 4294967297, ptr %17, align 8
  %18 = tail call fastcc ptr @_tjInitCompress(ptr noundef nonnull %calloc.i)
  %19 = icmp eq ptr %18, null
  br i1 %19, label %47, label %20

20:                                               ; preds = %tj3Init.exit
  %21 = lshr i32 %5, 1
  %.lobit.i = and i32 %21, 1
  %22 = getelementptr inbounds i8, ptr %18, i64 1744
  store i32 %.lobit.i, ptr %22, align 8
  %23 = and i32 %5, 8
  %.not.i = icmp eq i32 %23, 0
  br i1 %.not.i, label %24, label %.sink.split.i

24:                                               ; preds = %20
  %25 = and i32 %5, 16
  %.not39.i = icmp eq i32 %25, 0
  br i1 %.not39.i, label %26, label %.sink.split.i

26:                                               ; preds = %24
  %27 = and i32 %5, 32
  %.not40.i = icmp eq i32 %27, 0
  br i1 %.not40.i, label %29, label %.sink.split.i

.sink.split.i:                                    ; preds = %26, %24, %20
  %.str.125.sink.i = phi ptr [ @.str.123, %20 ], [ @.str.125, %24 ], [ @.str.126, %26 ]
  %28 = tail call i32 @setenv(ptr noundef nonnull %.str.125.sink.i, ptr noundef nonnull @.str.124, i32 noundef 1) #26
  br label %29

29:                                               ; preds = %.sink.split.i, %26
  %30 = lshr i32 %5, 8
  %.lobit41.i = and i32 %30, 1
  %31 = getelementptr inbounds i8, ptr %18, i64 1776
  store i32 %.lobit41.i, ptr %31, align 8
  %32 = lshr i32 %5, 10
  %.lobit42.i = and i32 %32, 1
  %33 = getelementptr inbounds i8, ptr %18, i64 1748
  store i32 %.lobit42.i, ptr %33, align 4
  %34 = getelementptr inbounds i8, ptr %18, i64 1752
  %35 = load i32, ptr %34, align 8
  %36 = icmp slt i32 %35, 96
  %37 = and i32 %5, 4096
  %.not44.i = icmp eq i32 %37, 0
  %or.cond.i = and i1 %.not44.i, %36
  %38 = getelementptr inbounds i8, ptr %18, i64 1780
  %. = zext i1 %or.cond.i to i32
  store i32 %., ptr %38, align 4
  %39 = lshr i32 %5, 13
  %.lobit45.i = and i32 %39, 1
  %40 = getelementptr inbounds i8, ptr %18, i64 1532
  store i32 %.lobit45.i, ptr %40, align 4
  %41 = lshr i32 %5, 14
  %.lobit46.i = and i32 %41, 1
  %42 = getelementptr inbounds i8, ptr %18, i64 1788
  store i32 %.lobit46.i, ptr %42, align 4
  %43 = and i32 %5, 32768
  %.not47.i = icmp eq i32 %43, 0
  br i1 %.not47.i, label %processFlags.exit, label %44

44:                                               ; preds = %29
  %45 = getelementptr inbounds i8, ptr %18, i64 1792
  store i32 500, ptr %45, align 8
  br label %processFlags.exit

processFlags.exit:                                ; preds = %29, %44
  %46 = tail call ptr @tj3LoadImage8(ptr noundef nonnull %18, ptr noundef %0, ptr noundef %1, i32 noundef %2, ptr noundef %3, ptr noundef %4)
  tail call void @tj3Destroy(ptr noundef nonnull %18)
  br label %47

47:                                               ; preds = %tj3Init.exit.thread, %tj3Init.exit, %processFlags.exit
  %.0 = phi ptr [ %46, %processFlags.exit ], [ null, %tj3Init.exit ], [ null, %tj3Init.exit.thread ]
  ret ptr %.0
}